; ModuleID = '20/1265.c'
source_filename = "20/1265.c"
target datalayout = "e-m:e-p270:32:32-p271:32:32-p272:64:64-i64:64-f80:128-n8:16:32:64-S128"
target triple = "x86_64-pc-linux-gnu"

@.str = private unnamed_addr constant [5 x i8] c"%s%s\00", align 1
@.str.1 = private unnamed_addr constant [4 x i8] c"%s\0A\00", align 1

; Function Attrs: noinline nounwind uwtable
define dso_local i32 @locate(i8* %0) #0 {
  %2 = alloca i8*, align 8
  %3 = alloca i32, align 4
  %4 = alloca i32, align 4
  %5 = alloca i32, align 4
  store i8* %0, i8** %2, align 8
  store i32 0, i32* %4, align 4
  %6 = load i8*, i8** %2, align 8
  %7 = call i64 @strlen(i8* %6) #4
  %8 = trunc i64 %7 to i32
  store i32 %8, i32* %5, align 4
  store i32 1, i32* %3, align 4
  br label %9

9:                                                ; preds = %30, %1
  %10 = load i32, i32* %3, align 4
  %11 = load i32, i32* %5, align 4
  %12 = icmp slt i32 %10, %11
  br i1 %12, label %13, label %33

13:                                               ; preds = %9
  %14 = load i8*, i8** %2, align 8
  %15 = load i32, i32* %3, align 4
  %16 = sext i32 %15 to i64
  %17 = getelementptr inbounds i8, i8* %14, i64 %16
  %18 = load i8, i8* %17, align 1
  %19 = sext i8 %18 to i32
  %20 = load i8*, i8** %2, align 8
  %21 = load i32, i32* %4, align 4
  %22 = sext i32 %21 to i64
  %23 = getelementptr inbounds i8, i8* %20, i64 %22
  %24 = load i8, i8* %23, align 1
  %25 = sext i8 %24 to i32
  %26 = icmp sgt i32 %19, %25
  br i1 %26, label %27, label %29

27:                                               ; preds = %13
  %28 = load i32, i32* %3, align 4
  store i32 %28, i32* %4, align 4
  br label %29

29:                                               ; preds = %27, %13
  br label %30

30:                                               ; preds = %29
  %31 = load i32, i32* %3, align 4
  %32 = add nsw i32 %31, 1
  store i32 %32, i32* %3, align 4
  br label %9

33:                                               ; preds = %9
  %34 = load i32, i32* %4, align 4
  ret i32 %34
}

; Function Attrs: nounwind readonly
declare dso_local i64 @strlen(i8*) #1

; Function Attrs: noinline nounwind uwtable
define dso_local void @main() #0 {
  %1 = alloca [100 x [21 x i8]], align 16
  %2 = alloca [100 x [30 x i8]], align 16
  %3 = alloca [100 x i8], align 16
  %4 = alloca [100 x i8], align 16
  %5 = alloca i32, align 4
  %6 = alloca i32, align 4
  %7 = alloca i32, align 4
  store i32 -1, i32* %5, align 4
  br label %8

8:                                                ; preds = %11, %0
  %9 = load i32, i32* %5, align 4
  %10 = add nsw i32 %9, 1
  store i32 %10, i32* %5, align 4
  br label %11

11:                                               ; preds = %8
  %12 = load i32, i32* %5, align 4
  %13 = sext i32 %12 to i64
  %14 = getelementptr inbounds [100 x [21 x i8]], [100 x [21 x i8]]* %1, i64 0, i64 %13
  %15 = getelementptr inbounds [21 x i8], [21 x i8]* %14, i64 0, i64 0
  %16 = load i32, i32* %5, align 4
  %17 = sext i32 %16 to i64
  %18 = getelementptr inbounds [100 x [30 x i8]], [100 x [30 x i8]]* %2, i64 0, i64 %17
  %19 = getelementptr inbounds [30 x i8], [30 x i8]* %18, i64 0, i64 0
  %20 = call i32 (i8*, ...) @__isoc99_scanf(i8* getelementptr inbounds ([5 x i8], [5 x i8]* @.str, i64 0, i64 0), i8* %15, i8* %19)
  %21 = icmp ne i32 %20, -1
  br i1 %21, label %8, label %22

22:                                               ; preds = %11
  store i32 0, i32* %6, align 4
  br label %23

23:                                               ; preds = %112, %22
  %24 = load i32, i32* %6, align 4
  %25 = load i32, i32* %5, align 4
  %26 = icmp slt i32 %24, %25
  br i1 %26, label %27, label %115

27:                                               ; preds = %23
  %28 = load i32, i32* %6, align 4
  %29 = sext i32 %28 to i64
  %30 = getelementptr inbounds [100 x [21 x i8]], [100 x [21 x i8]]* %1, i64 0, i64 %29
  %31 = getelementptr inbounds [21 x i8], [21 x i8]* %30, i64 0, i64 0
  %32 = call i32 @locate(i8* %31)
  %33 = trunc i32 %32 to i8
  %34 = load i32, i32* %6, align 4
  %35 = sext i32 %34 to i64
  %36 = getelementptr inbounds [100 x i8], [100 x i8]* %3, i64 0, i64 %35
  store i8 %33, i8* %36, align 1
  %37 = load i32, i32* %6, align 4
  %38 = sext i32 %37 to i64
  %39 = getelementptr inbounds [100 x [30 x i8]], [100 x [30 x i8]]* %2, i64 0, i64 %38
  %40 = getelementptr inbounds [30 x i8], [30 x i8]* %39, i64 0, i64 0
  %41 = call i64 @strlen(i8* %40) #4
  %42 = trunc i64 %41 to i8
  %43 = load i32, i32* %6, align 4
  %44 = sext i32 %43 to i64
  %45 = getelementptr inbounds [100 x i8], [100 x i8]* %4, i64 0, i64 %44
  store i8 %42, i8* %45, align 1
  %46 = load i32, i32* %6, align 4
  %47 = sext i32 %46 to i64
  %48 = getelementptr inbounds [100 x i8], [100 x i8]* %3, i64 0, i64 %47
  %49 = load i8, i8* %48, align 1
  %50 = sext i8 %49 to i32
  %51 = add nsw i32 %50, 1
  store i32 %51, i32* %7, align 4
  br label %52

52:                                               ; preds = %62, %27
  %53 = load i32, i32* %6, align 4
  %54 = sext i32 %53 to i64
  %55 = getelementptr inbounds [100 x [21 x i8]], [100 x [21 x i8]]* %1, i64 0, i64 %54
  %56 = load i32, i32* %7, align 4
  %57 = sext i32 %56 to i64
  %58 = getelementptr inbounds [21 x i8], [21 x i8]* %55, i64 0, i64 %57
  %59 = load i8, i8* %58, align 1
  %60 = sext i8 %59 to i32
  %61 = icmp ne i32 %60, 0
  br i1 %61, label %62, label %81

62:                                               ; preds = %52
  %63 = load i32, i32* %6, align 4
  %64 = sext i32 %63 to i64
  %65 = getelementptr inbounds [100 x [21 x i8]], [100 x [21 x i8]]* %1, i64 0, i64 %64
  %66 = load i32, i32* %7, align 4
  %67 = add nsw i32 %66, 1
  store i32 %67, i32* %7, align 4
  %68 = sext i32 %66 to i64
  %69 = getelementptr inbounds [21 x i8], [21 x i8]* %65, i64 0, i64 %68
  %70 = load i8, i8* %69, align 1
  %71 = load i32, i32* %6, align 4
  %72 = sext i32 %71 to i64
  %73 = getelementptr inbounds [100 x [30 x i8]], [100 x [30 x i8]]* %2, i64 0, i64 %72
  %74 = load i32, i32* %6, align 4
  %75 = sext i32 %74 to i64
  %76 = getelementptr inbounds [100 x i8], [100 x i8]* %4, i64 0, i64 %75
  %77 = load i8, i8* %76, align 1
  %78 = add i8 %77, 1
  store i8 %78, i8* %76, align 1
  %79 = sext i8 %77 to i64
  %80 = getelementptr inbounds [30 x i8], [30 x i8]* %73, i64 0, i64 %79
  store i8 %70, i8* %80, align 1
  br label %52

81:                                               ; preds = %52
  %82 = load i32, i32* %6, align 4
  %83 = sext i32 %82 to i64
  %84 = getelementptr inbounds [100 x [30 x i8]], [100 x [30 x i8]]* %2, i64 0, i64 %83
  %85 = load i32, i32* %6, align 4
  %86 = sext i32 %85 to i64
  %87 = getelementptr inbounds [100 x i8], [100 x i8]* %4, i64 0, i64 %86
  %88 = load i8, i8* %87, align 1
  %89 = sext i8 %88 to i64
  %90 = getelementptr inbounds [30 x i8], [30 x i8]* %84, i64 0, i64 %89
  store i8 0, i8* %90, align 1
  %91 = load i32, i32* %6, align 4
  %92 = sext i32 %91 to i64
  %93 = getelementptr inbounds [100 x [21 x i8]], [100 x [21 x i8]]* %1, i64 0, i64 %92
  %94 = load i32, i32* %6, align 4
  %95 = sext i32 %94 to i64
  %96 = getelementptr inbounds [100 x i8], [100 x i8]* %3, i64 0, i64 %95
  %97 = load i8, i8* %96, align 1
  %98 = sext i8 %97 to i32
  %99 = add nsw i32 %98, 1
  %100 = sext i32 %99 to i64
  %101 = getelementptr inbounds [21 x i8], [21 x i8]* %93, i64 0, i64 %100
  store i8 0, i8* %101, align 1
  %102 = load i32, i32* %6, align 4
  %103 = sext i32 %102 to i64
  %104 = getelementptr inbounds [100 x [21 x i8]], [100 x [21 x i8]]* %1, i64 0, i64 %103
  %105 = getelementptr inbounds [21 x i8], [21 x i8]* %104, i64 0, i64 0
  %106 = load i32, i32* %6, align 4
  %107 = sext i32 %106 to i64
  %108 = getelementptr inbounds [100 x [30 x i8]], [100 x [30 x i8]]* %2, i64 0, i64 %107
  %109 = getelementptr inbounds [30 x i8], [30 x i8]* %108, i64 0, i64 0
  %110 = call i8* @strcat(i8* %105, i8* %109) #5
  %111 = call i32 (i8*, ...) @printf(i8* getelementptr inbounds ([4 x i8], [4 x i8]* @.str.1, i64 0, i64 0), i8* %110)
  br label %112

112:                                              ; preds = %81
  %113 = load i32, i32* %6, align 4
  %114 = add nsw i32 %113, 1
  store i32 %114, i32* %6, align 4
  br label %23

115:                                              ; preds = %23
  ret void
}

declare dso_local i32 @__isoc99_scanf(i8*, ...) #2

declare dso_local i32 @printf(i8*, ...) #2

; Function Attrs: nounwind
declare dso_local i8* @strcat(i8*, i8*) #3


!llvm.module.flags = !{!0}
!llvm.ident = !{!1}

!0 = !{i32 1, !"wchar_size", i32 4}
!1 = !{!"clang version 10.0.0-4ubuntu1 "}
